; Function Attrs: nounwind uwtable
define range(i32 0, 2) i32 @ossl_rio_poll_builder_poll(ptr noundef %0, i64 %1) local_unnamed_addr #1 {
  %.not = icmp eq i64 %1, -1
  %3 = getelementptr inbounds nuw i8, ptr %0, i64 8
  %4 = getelementptr inbounds nuw i8, ptr %0, i64 264
  br i1 %.not, label %.split.us, label %.split

.split.us:                                        ; preds = %2, %10
  %5 = load ptr, ptr %0, align 8, !tbaa !3
  %.not10.us = icmp eq ptr %5, null
  %6 = select i1 %.not10.us, ptr %3, ptr %5
  %7 = load i64, ptr %4, align 8, !tbaa !10
  %8 = tail call i32 @poll(ptr noundef nonnull %6, i64 noundef %7, i32 noundef -1) #6
  %9 = icmp eq i32 %8, -1
  br i1 %9, label %10, label %.critedge

10:                                               ; preds = %.split.us
  %11 = tail call ptr @__errno_location() #7
  %12 = load i32, ptr %11, align 4, !tbaa !19
  %13 = icmp eq i32 %12, 4
  br i1 %13, label %.split.us, label %.critedge, !llvm.loop !20

.split:                                           ; preds = %2, %22
  %14 = tail call i64 @ossl_time_now() #6
  %..i = tail call i64 @llvm.usub.sat.i64(i64 %1, i64 %14)
  %15 = udiv i64 %..i, 1000000
  %16 = trunc i64 %15 to i32
  %17 = load ptr, ptr %0, align 8, !tbaa !3
  %.not10 = icmp eq ptr %17, null
  %18 = select i1 %.not10, ptr %3, ptr %17
  %19 = load i64, ptr %4, align 8, !tbaa !10
  %20 = tail call i32 @poll(ptr noundef nonnull %18, i64 noundef %19, i32 noundef %16) #6
  %21 = icmp eq i32 %20, -1
  br i1 %21, label %22, label %.critedge

22:                                               ; preds = %.split
  %23 = tail call ptr @__errno_location() #7
  %24 = load i32, ptr %23, align 4, !tbaa !19
  %25 = icmp eq i32 %24, 4
  br i1 %25, label %.split, label %.critedge, !llvm.loop !20

.critedge:                                        ; preds = %22, %.split, %.split.us, %10
  %.us-phi = phi i32 [ %8, %.split.us ], [ -1, %10 ], [ -1, %22 ], [ %20, %.split ]
  %26 = icmp sgt i32 %.us-phi, -1
  %27 = zext i1 %26 to i32
  ret i32 %27
}